; Function Attrs: mustprogress uwtable
define hidden void @_ZN4cvc58internal6theory14TheoryRewriter27rewriteEqualityExtWithProofENS0_12NodeTemplateILb1EEE(ptr dead_on_unwind noalias writable sret(%"class.cvc5::internal::TrustNode") align 8 %0, ptr noundef nonnull align 8 dereferenceable(64) %1, ptr noundef readonly captures(none) %2) unnamed_addr #3 align 2 personality ptr @__gxx_personality_v0 {
  %4 = alloca %"class.cvc5::internal::NodeTemplate", align 8
  %5 = alloca %"class.cvc5::internal::NodeTemplate", align 8
  %6 = alloca %"class.cvc5::internal::NodeTemplate.0", align 8
  %7 = alloca %"class.cvc5::internal::NodeTemplate", align 8
  call void @llvm.lifetime.start.p0(i64 8, ptr nonnull %4) #26
  %8 = load ptr, ptr %2, align 8, !tbaa !17
  store ptr %8, ptr %5, align 8, !tbaa !17
  %9 = load i64, ptr %8, align 8
  %10 = lshr i64 %9, 40
  %11 = trunc nuw nsw i64 %10 to i32
  %12 = and i32 %11, 1048575
  %13 = icmp samesign ult i32 %12, 1048574
  br i1 %13, label %14, label %19, !prof !21

14:                                               ; preds = %3
  %15 = add i64 %9, 1099511627776
  %16 = and i64 %15, 1152920405095219200
  %17 = and i64 %9, -1152920405095219201
  %18 = or disjoint i64 %16, %17
  store i64 %18, ptr %8, align 8
  br label %_ZN4cvc58internal12NodeTemplateILb1EEC2ERKS2_.exit

19:                                               ; preds = %3
  %20 = icmp eq i32 %12, 1048574
  br i1 %20, label %21, label %_ZN4cvc58internal12NodeTemplateILb1EEC2ERKS2_.exit, !prof !22

21:                                               ; preds = %19
  %22 = or i64 %9, 1152920405095219200
  store i64 %22, ptr %8, align 8
  tail call void @_ZN4cvc58internal4expr9NodeValue20markRefCountMaxedOutEv(ptr noundef nonnull align 8 dereferenceable(24) %8)
  br label %_ZN4cvc58internal12NodeTemplateILb1EEC2ERKS2_.exit

_ZN4cvc58internal12NodeTemplateILb1EEC2ERKS2_.exit: ; preds = %14, %19, %21
  %23 = load ptr, ptr %1, align 8, !tbaa !23
  %24 = getelementptr inbounds nuw i8, ptr %23, i64 56
  %25 = load ptr, ptr %24, align 8
  invoke void %25(ptr dead_on_unwind nonnull writable sret(%"class.cvc5::internal::NodeTemplate") align 8 %4, ptr noundef nonnull align 8 dereferenceable(64) %1, ptr noundef nonnull %5)
          to label %26 unwind label %72

26:                                               ; preds = %_ZN4cvc58internal12NodeTemplateILb1EEC2ERKS2_.exit
  %27 = load ptr, ptr %5, align 8, !tbaa !17
  %28 = load i64, ptr %27, align 8
  %29 = and i64 %28, 1152920405095219200
  %.not.i.i = icmp eq i64 %29, 1152920405095219200
  br i1 %.not.i.i, label %40, label %30, !prof !22

30:                                               ; preds = %26
  %31 = add i64 %28, 1152920405095219200
  %32 = and i64 %31, 1152920405095219200
  %33 = and i64 %28, -1152920405095219201
  %34 = or disjoint i64 %32, %33
  store i64 %34, ptr %27, align 8
  %35 = icmp eq i64 %32, 0
  br i1 %35, label %36, label %40, !prof !22

36:                                               ; preds = %30
  invoke void @_ZN4cvc58internal4expr9NodeValue15markForDeletionEv(ptr noundef nonnull align 8 dereferenceable(24) %27)
          to label %40 unwind label %37

37:                                               ; preds = %36
  %38 = landingpad { ptr, i32 }
          catch ptr null
  %39 = extractvalue { ptr, i32 } %38, 0
  call void @__clang_call_terminate(ptr %39) #27
  unreachable

40:                                               ; preds = %36, %30, %26
  %41 = load ptr, ptr %4, align 8, !tbaa !17
  %42 = load ptr, ptr %2, align 8, !tbaa !17
  %.not = icmp eq ptr %41, %42
  br i1 %.not, label %80, label %43

43:                                               ; preds = %40
  store ptr %42, ptr %6, align 8, !tbaa !19
  store ptr %41, ptr %7, align 8, !tbaa !17
  %44 = load i64, ptr %41, align 8
  %45 = lshr i64 %44, 40
  %46 = trunc nuw nsw i64 %45 to i32
  %47 = and i32 %46, 1048575
  %48 = icmp samesign ult i32 %47, 1048574
  br i1 %48, label %49, label %54, !prof !21

49:                                               ; preds = %43
  %50 = add i64 %44, 1099511627776
  %51 = and i64 %50, 1152920405095219200
  %52 = and i64 %44, -1152920405095219201
  %53 = or disjoint i64 %51, %52
  store i64 %53, ptr %41, align 8
  br label %_ZN4cvc58internal12NodeTemplateILb1EEC2ERKS2_.exit8

54:                                               ; preds = %43
  %55 = icmp eq i32 %47, 1048574
  br i1 %55, label %56, label %_ZN4cvc58internal12NodeTemplateILb1EEC2ERKS2_.exit8, !prof !22

56:                                               ; preds = %54
  %57 = or i64 %44, 1152920405095219200
  store i64 %57, ptr %41, align 8
  invoke void @_ZN4cvc58internal4expr9NodeValue20markRefCountMaxedOutEv(ptr noundef nonnull align 8 dereferenceable(24) %41)
          to label %_ZN4cvc58internal12NodeTemplateILb1EEC2ERKS2_.exit8 unwind label %76

_ZN4cvc58internal12NodeTemplateILb1EEC2ERKS2_.exit8: ; preds = %54, %49, %56
  invoke void @_ZN4cvc58internal9TrustNode14mkTrustRewriteENS0_12NodeTemplateILb0EEENS2_ILb1EEEPNS0_14ProofGeneratorE(ptr dead_on_unwind writable sret(%"class.cvc5::internal::TrustNode") align 8 %0, ptr noundef nonnull %6, ptr noundef nonnull %7, ptr noundef null)
          to label %58 unwind label %78

58:                                               ; preds = %_ZN4cvc58internal12NodeTemplateILb1EEC2ERKS2_.exit8
  %59 = load ptr, ptr %7, align 8, !tbaa !17
  %60 = load i64, ptr %59, align 8
  %61 = and i64 %60, 1152920405095219200
  %.not.i.i9 = icmp eq i64 %61, 1152920405095219200
  br i1 %.not.i.i9, label %_ZN4cvc58internal12NodeTemplateILb1EED2Ev.exit10, label %62, !prof !22

62:                                               ; preds = %58
  %63 = add i64 %60, 1152920405095219200
  %64 = and i64 %63, 1152920405095219200
  %65 = and i64 %60, -1152920405095219201
  %66 = or disjoint i64 %64, %65
  store i64 %66, ptr %59, align 8
  %67 = icmp eq i64 %64, 0
  br i1 %67, label %68, label %_ZN4cvc58internal12NodeTemplateILb1EED2Ev.exit10, !prof !22

68:                                               ; preds = %62
  invoke void @_ZN4cvc58internal4expr9NodeValue15markForDeletionEv(ptr noundef nonnull align 8 dereferenceable(24) %59)
          to label %_ZN4cvc58internal12NodeTemplateILb1EED2Ev.exit10 unwind label %69

69:                                               ; preds = %68
  %70 = landingpad { ptr, i32 }
          catch ptr null
  %71 = extractvalue { ptr, i32 } %70, 0
  call void @__clang_call_terminate(ptr %71) #27
  unreachable

72:                                               ; preds = %_ZN4cvc58internal12NodeTemplateILb1EEC2ERKS2_.exit
  %73 = landingpad { ptr, i32 }
          cleanup
  br label %94

74:                                               ; preds = %80
  %75 = landingpad { ptr, i32 }
          cleanup
  br label %94

76:                                               ; preds = %56
  %77 = landingpad { ptr, i32 }
          cleanup
  br label %94

78:                                               ; preds = %_ZN4cvc58internal12NodeTemplateILb1EEC2ERKS2_.exit8
  %79 = landingpad { ptr, i32 }
          cleanup
  call void @_ZN4cvc58internal12NodeTemplateILb1EED2Ev(ptr noundef nonnull align 8 dereferenceable(8) %7) #26
  br label %94

80:                                               ; preds = %40
  invoke void @_ZN4cvc58internal9TrustNode4nullEv(ptr dead_on_unwind writable sret(%"class.cvc5::internal::TrustNode") align 8 %0)
          to label %_ZN4cvc58internal12NodeTemplateILb1EED2Ev.exit10 unwind label %74

_ZN4cvc58internal12NodeTemplateILb1EED2Ev.exit10: ; preds = %68, %62, %58, %80
  %81 = load ptr, ptr %4, align 8, !tbaa !17
  %82 = load i64, ptr %81, align 8
  %83 = and i64 %82, 1152920405095219200
  %.not.i.i11 = icmp eq i64 %83, 1152920405095219200
  br i1 %.not.i.i11, label %_ZN4cvc58internal12NodeTemplateILb1EED2Ev.exit12, label %84, !prof !22

84:                                               ; preds = %_ZN4cvc58internal12NodeTemplateILb1EED2Ev.exit10
  %85 = add i64 %82, 1152920405095219200
  %86 = and i64 %85, 1152920405095219200
  %87 = and i64 %82, -1152920405095219201
  %88 = or disjoint i64 %86, %87
  store i64 %88, ptr %81, align 8
  %89 = icmp eq i64 %86, 0
  br i1 %89, label %90, label %_ZN4cvc58internal12NodeTemplateILb1EED2Ev.exit12, !prof !22

90:                                               ; preds = %84
  invoke void @_ZN4cvc58internal4expr9NodeValue15markForDeletionEv(ptr noundef nonnull align 8 dereferenceable(24) %81)
          to label %_ZN4cvc58internal12NodeTemplateILb1EED2Ev.exit12 unwind label %91

91:                                               ; preds = %90
  %92 = landingpad { ptr, i32 }
          catch ptr null
  %93 = extractvalue { ptr, i32 } %92, 0
  call void @__clang_call_terminate(ptr %93) #27
  unreachable

_ZN4cvc58internal12NodeTemplateILb1EED2Ev.exit12: ; preds = %_ZN4cvc58internal12NodeTemplateILb1EED2Ev.exit10, %84, %90
  call void @llvm.lifetime.end.p0(i64 8, ptr nonnull %4) #26
  ret void

94:                                               ; preds = %74, %78, %76, %72
  %.sink = phi ptr [ %5, %72 ], [ %4, %76 ], [ %4, %78 ], [ %4, %74 ]
  %.pn.pn.pn = phi { ptr, i32 } [ %73, %72 ], [ %77, %76 ], [ %79, %78 ], [ %75, %74 ]
  call void @_ZN4cvc58internal12NodeTemplateILb1EED2Ev(ptr noundef nonnull align 8 dereferenceable(8) %.sink) #26
  call void @llvm.lifetime.end.p0(i64 8, ptr nonnull %4) #26
  resume { ptr, i32 } %.pn.pn.pn
}